target datalayout = "e-m:e-p270:32:32-p271:32:32-p272:64:64-i64:64-i128:128-f80:128-n8:16:32:64-S128"
target triple = "x86_64-unknown-linux-gnu"

%"class.hermes::vm::CallResult" = type { i16, [2 x i8] }
%"class.hermes::vm::Handle" = type { %"class.hermes::vm::HandleBase" }
%"class.hermes::vm::HandleBase" = type { ptr }
%"class.hermes::vm::Handle.0" = type { %"class.hermes::vm::HandleBase" }
%"union.hermes::vm::PropOpFlags" = type { i32 }
%"class.hermes::vm::CallResult.181" = type { %"class.hermes::vm::Handle.0" }
%"union.hermes::vm::DefinePropertyFlags" = type { i32 }

; Function Attrs: mustprogress nounwind uwtable
define linkonce_odr hidden noundef ptr @_ZNK6hermes2vm10HandleBase26unsafeGetPinnedHermesValueEv(ptr noundef nonnull align 8 dereferenceable(8) %this) #0 comdat align 2 {
entry:
  %this.addr = alloca ptr, align 8
  store ptr %this, ptr %this.addr, align 8
  %this1 = load ptr, ptr %this.addr, align 8
  %handle_ = getelementptr inbounds %"class.hermes::vm::HandleBase", ptr %this1, i32 0, i32 0
  %0 = load ptr, ptr %handle_, align 8
  ret ptr %0
}

; Function Attrs: mustprogress nounwind uwtable
define linkonce_odr hidden noundef nonnull align 8 dereferenceable(8) ptr @_ZN6hermes2vm10CallResultINS0_6HandleINS0_11HermesValueEEELNS0_6detail20CallResultSpecializeE4EE8getValueEv(ptr noundef nonnull align 8 dereferenceable(8) %this) #0 comdat align 2 {
entry:
  %this.addr = alloca ptr, align 8
  store ptr %this, ptr %this.addr, align 8
  %this1 = load ptr, ptr %this.addr, align 8
  %valueOrStatus_ = getelementptr inbounds %"class.hermes::vm::CallResult.181", ptr %this1, i32 0, i32 0
  ret ptr %valueOrStatus_
}

; Function Attrs: mustprogress nounwind uwtable
define linkonce_odr hidden noundef i32 @_ZNK6hermes2vm10CallResultINS0_6HandleINS0_11HermesValueEEELNS0_6detail20CallResultSpecializeE4EE9getStatusEv(ptr noundef nonnull align 8 dereferenceable(8) %this) #0 comdat align 2 {
entry:
  %this.addr = alloca ptr, align 8
  store ptr %this, ptr %this.addr, align 8
  %this1 = load ptr, ptr %this.addr, align 8
  %valueOrStatus_ = getelementptr inbounds %"class.hermes::vm::CallResult.181", ptr %this1, i32 0, i32 0
  %call = call noundef ptr @_ZNK6hermes2vm10HandleBase26unsafeGetPinnedHermesValueEv(ptr noundef nonnull align 8 dereferenceable(8) %valueOrStatus_)
  %0 = ptrtoint ptr %call to i64
  %cmp = icmp eq i64 %0, -1
  %cond = select i1 %cmp, i32 0, i32 1
  ret i32 %cond
}

; Function Attrs: mustprogress nounwind uwtable
define linkonce_odr hidden noundef nonnull align 8 dereferenceable(8) ptr @_ZN6hermes2vm10CallResultINS0_6HandleINS0_11HermesValueEEELNS0_6detail20CallResultSpecializeE4EEdeEv(ptr noundef nonnull align 8 dereferenceable(8) %this) #0 comdat align 2 {
entry:
  %this.addr = alloca ptr, align 8
  store ptr %this, ptr %this.addr, align 8
  %this1 = load ptr, ptr %this.addr, align 8
  %call = call noundef nonnull align 8 dereferenceable(8) ptr @_ZN6hermes2vm10CallResultINS0_6HandleINS0_11HermesValueEEELNS0_6detail20CallResultSpecializeE4EE8getValueEv(ptr noundef nonnull align 8 dereferenceable(8) %this1)
  ret ptr %call
}

; Function Attrs: mustprogress nounwind uwtable
define linkonce_odr hidden void @_ZN6hermes2vm10CallResultIbLNS0_6detail20CallResultSpecializeE1EEC2ENS0_15ExecutionStatusE(ptr noundef nonnull align 4 dereferenceable(2) %this, i32 noundef %status) unnamed_addr #0 comdat align 2 {
entry:
  %this.addr = alloca ptr, align 8
  %status.addr = alloca i32, align 4
  store ptr %this, ptr %this.addr, align 8
  store i32 %status, ptr %status.addr, align 4
  %this1 = load ptr, ptr %this.addr, align 8
  %0 = load i32, ptr %status.addr, align 4
  %1 = trunc i32 %0 to i16
  %bf.load = load i16, ptr %this1, align 4
  %bf.value = and i16 %1, 255
  %bf.clear = and i16 %bf.load, -256
  %bf.set = or i16 %bf.clear, %bf.value
  store i16 %bf.set, ptr %this1, align 4
  ret void
}

; Function Attrs: mustprogress nounwind uwtable
define linkonce_odr hidden noundef zeroext i1 @_ZN6hermes2vmeqINS0_6HandleINS0_11HermesValueEEEEEbRKNS0_10CallResultIT_Xsr6detail23GetCallResultSpecializeIS6_EE5valueEEENS0_15ExecutionStatusE(ptr noundef nonnull align 8 dereferenceable(8) %lhs, i32 noundef %rhs) #0 comdat {
entry:
  %lhs.addr = alloca ptr, align 8
  %rhs.addr = alloca i32, align 4
  store ptr %lhs, ptr %lhs.addr, align 8
  store i32 %rhs, ptr %rhs.addr, align 4
  %0 = load ptr, ptr %lhs.addr, align 8
  %call = call noundef i32 @_ZNK6hermes2vm10CallResultINS0_6HandleINS0_11HermesValueEEELNS0_6detail20CallResultSpecializeE4EE9getStatusEv(ptr noundef nonnull align 8 dereferenceable(8) %0)
  %1 = load i32, ptr %rhs.addr, align 4
  %cmp = icmp eq i32 %call, %1
  ret i1 %cmp
}

; Function Attrs: mustprogress nounwind uwtable
define hidden i32 @_ZN6hermes2vm8JSObject17defineOwnComputedENS0_6HandleIS1_EERNS0_7RuntimeENS2_INS0_11HermesValueEEENS0_19DefinePropertyFlagsES7_NS0_11PropOpFlagsE(ptr %selfHandle.coerce, ptr noundef nonnull align 8 dereferenceable(9832) %runtime, ptr %nameValHandle.coerce, i32 %dpFlags.coerce, ptr %valueOrAccessor.coerce, i32 %opFlags.coerce) #0 align 2 {
entry:
  %retval = alloca %"class.hermes::vm::CallResult", align 4
  %selfHandle = alloca %"class.hermes::vm::Handle", align 8
  %nameValHandle = alloca %"class.hermes::vm::Handle.0", align 8
  %dpFlags = alloca %"union.hermes::vm::DefinePropertyFlags", align 4
  %valueOrAccessor = alloca %"class.hermes::vm::Handle.0", align 8
  %opFlags = alloca %"union.hermes::vm::PropOpFlags", align 4
  %runtime.addr = alloca ptr, align 8
  %converted = alloca %"class.hermes::vm::CallResult.181", align 8
  %agg.tmp = alloca %"class.hermes::vm::Handle.0", align 8
  %agg.tmp14 = alloca %"class.hermes::vm::Handle", align 8
  %agg.tmp15 = alloca %"class.hermes::vm::Handle.0", align 8
  %agg.tmp17 = alloca %"union.hermes::vm::DefinePropertyFlags", align 4
  %agg.tmp18 = alloca %"class.hermes::vm::Handle.0", align 8
  %agg.tmp19 = alloca %"union.hermes::vm::PropOpFlags", align 4
  %coerce.dive = getelementptr inbounds %"class.hermes::vm::Handle", ptr %selfHandle, i32 0, i32 0
  %coerce.dive1 = getelementptr inbounds %"class.hermes::vm::HandleBase", ptr %coerce.dive, i32 0, i32 0
  store ptr %selfHandle.coerce, ptr %coerce.dive1, align 8
  %coerce.dive2 = getelementptr inbounds %"class.hermes::vm::Handle.0", ptr %nameValHandle, i32 0, i32 0
  %coerce.dive3 = getelementptr inbounds %"class.hermes::vm::HandleBase", ptr %coerce.dive2, i32 0, i32 0
  store ptr %nameValHandle.coerce, ptr %coerce.dive3, align 8
  %coerce.dive4 = getelementptr inbounds %"union.hermes::vm::DefinePropertyFlags", ptr %dpFlags, i32 0, i32 0
  store i32 %dpFlags.coerce, ptr %coerce.dive4, align 4
  %coerce.dive5 = getelementptr inbounds %"class.hermes::vm::Handle.0", ptr %valueOrAccessor, i32 0, i32 0
  %coerce.dive6 = getelementptr inbounds %"class.hermes::vm::HandleBase", ptr %coerce.dive5, i32 0, i32 0
  store ptr %valueOrAccessor.coerce, ptr %coerce.dive6, align 8
  %coerce.dive7 = getelementptr inbounds %"union.hermes::vm::PropOpFlags", ptr %opFlags, i32 0, i32 0
  store i32 %opFlags.coerce, ptr %coerce.dive7, align 4
  store ptr %runtime, ptr %runtime.addr, align 8
  %0 = load ptr, ptr %runtime.addr, align 8
  call void @llvm.memcpy.p0.p0.i64(ptr align 8 %agg.tmp, ptr align 8 %nameValHandle, i64 8, i1 false)
  %coerce.dive8 = getelementptr inbounds %"class.hermes::vm::Handle.0", ptr %agg.tmp, i32 0, i32 0
  %coerce.dive9 = getelementptr inbounds %"class.hermes::vm::HandleBase", ptr %coerce.dive8, i32 0, i32 0
  %1 = load ptr, ptr %coerce.dive9, align 8
  %call = call ptr @_ZN6hermes2vm21toPropertyKeyIfObjectERNS0_7RuntimeENS0_6HandleINS0_11HermesValueEEE(ptr noundef nonnull align 8 dereferenceable(9832) %0, ptr %1)
  %coerce.dive10 = getelementptr inbounds %"class.hermes::vm::CallResult.181", ptr %converted, i32 0, i32 0
  %coerce.dive11 = getelementptr inbounds %"class.hermes::vm::Handle.0", ptr %coerce.dive10, i32 0, i32 0
  %coerce.dive12 = getelementptr inbounds %"class.hermes::vm::HandleBase", ptr %coerce.dive11, i32 0, i32 0
  store ptr %call, ptr %coerce.dive12, align 8
  %call13 = call noundef zeroext i1 @_ZN6hermes2vmeqINS0_6HandleINS0_11HermesValueEEEEEbRKNS0_10CallResultIT_Xsr6detail23GetCallResultSpecializeIS6_EE5valueEEENS0_15ExecutionStatusE(ptr noundef nonnull align 8 dereferenceable(8) %converted, i32 noundef 0)
  br i1 %call13, label %if.then, label %if.end

if.then:                                          ; preds = %entry
  call void @_ZN6hermes2vm10CallResultIbLNS0_6detail20CallResultSpecializeE1EEC2ENS0_15ExecutionStatusE(ptr noundef nonnull align 4 dereferenceable(2) %retval, i32 noundef 0)
  br label %return

if.end:                                           ; preds = %entry
  call void @llvm.memcpy.p0.p0.i64(ptr align 8 %agg.tmp14, ptr align 8 %selfHandle, i64 8, i1 false)
  %2 = load ptr, ptr %runtime.addr, align 8
  %call16 = call noundef nonnull align 8 dereferenceable(8) ptr @_ZN6hermes2vm10CallResultINS0_6HandleINS0_11HermesValueEEELNS0_6detail20CallResultSpecializeE4EEdeEv(ptr noundef nonnull align 8 dereferenceable(8) %converted)
  call void @llvm.memcpy.p0.p0.i64(ptr align 8 %agg.tmp15, ptr align 8 %call16, i64 8, i1 false)
  call void @llvm.memcpy.p0.p0.i64(ptr align 4 %agg.tmp17, ptr align 4 %dpFlags, i64 4, i1 false)
  call void @llvm.memcpy.p0.p0.i64(ptr align 8 %agg.tmp18, ptr align 8 %valueOrAccessor, i64 8, i1 false)
  call void @llvm.memcpy.p0.p0.i64(ptr align 4 %agg.tmp19, ptr align 4 %opFlags, i64 4, i1 false)
  %coerce.dive20 = getelementptr inbounds %"class.hermes::vm::Handle", ptr %agg.tmp14, i32 0, i32 0
  %coerce.dive21 = getelementptr inbounds %"class.hermes::vm::HandleBase", ptr %coerce.dive20, i32 0, i32 0
  %3 = load ptr, ptr %coerce.dive21, align 8
  %coerce.dive22 = getelementptr inbounds %"class.hermes::vm::Handle.0", ptr %agg.tmp15, i32 0, i32 0
  %coerce.dive23 = getelementptr inbounds %"class.hermes::vm::HandleBase", ptr %coerce.dive22, i32 0, i32 0
  %4 = load ptr, ptr %coerce.dive23, align 8
  %coerce.dive24 = getelementptr inbounds %"union.hermes::vm::DefinePropertyFlags", ptr %agg.tmp17, i32 0, i32 0
  %5 = load i32, ptr %coerce.dive24, align 4
  %coerce.dive25 = getelementptr inbounds %"class.hermes::vm::Handle.0", ptr %agg.tmp18, i32 0, i32 0
  %coerce.dive26 = getelementptr inbounds %"class.hermes::vm::HandleBase", ptr %coerce.dive25, i32 0, i32 0
  %6 = load ptr, ptr %coerce.dive26, align 8
  %coerce.dive27 = getelementptr inbounds %"union.hermes::vm::PropOpFlags", ptr %agg.tmp19, i32 0, i32 0
  %7 = load i32, ptr %coerce.dive27, align 4
  %call28 = call i32 @_ZN6hermes2vm8JSObject26defineOwnComputedPrimitiveENS0_6HandleIS1_EERNS0_7RuntimeENS2_INS0_11HermesValueEEENS0_19DefinePropertyFlagsES7_NS0_11PropOpFlagsE(ptr %3, ptr noundef nonnull align 8 dereferenceable(9832) %2, ptr %4, i32 %5, ptr %6, i32 %7)
  store i32 %call28, ptr %retval, align 4
  br label %return

return:                                           ; preds = %if.end, %if.then
  %8 = load i32, ptr %retval, align 4
  ret i32 %8
}