; Function Attrs: mustprogress nounwind uwtable
define hidden i32 @_ZN6hermes2vm8JSObject17defineOwnComputedENS0_6HandleIS1_EERNS0_7RuntimeENS2_INS0_11HermesValueEEENS0_19DefinePropertyFlagsES7_NS0_11PropOpFlagsE(ptr %selfHandle.coerce, ptr noundef nonnull align 8 dereferenceable(9832) %runtime, ptr %nameValHandle.coerce, i32 %dpFlags.coerce, ptr %valueOrAccessor.coerce, i32 %opFlags.coerce) local_unnamed_addr #1 align 2 {
entry:
  %call = tail call ptr @_ZN6hermes2vm21toPropertyKeyIfObjectERNS0_7RuntimeENS0_6HandleINS0_11HermesValueEEE(ptr noundef nonnull align 8 dereferenceable(9832) %runtime, ptr %nameValHandle.coerce)
  %cmp.i.i.not = icmp eq ptr %call, inttoptr (i64 -1 to ptr)
  br i1 %cmp.i.i.not, label %return, label %if.end

if.end:                                           ; preds = %entry
  %call28 = tail call i32 @_ZN6hermes2vm8JSObject26defineOwnComputedPrimitiveENS0_6HandleIS1_EERNS0_7RuntimeENS2_INS0_11HermesValueEEENS0_19DefinePropertyFlagsES7_NS0_11PropOpFlagsE(ptr %selfHandle.coerce, ptr noundef nonnull align 8 dereferenceable(9832) %runtime, ptr %call, i32 %dpFlags.coerce, ptr %valueOrAccessor.coerce, i32 %opFlags.coerce)
  br label %return

return:                                           ; preds = %entry, %if.end
  %retval.sroa.0.0.insert.insert = phi i32 [ %call28, %if.end ], [ 0, %entry ]
  ret i32 %retval.sroa.0.0.insert.insert
}